; Function Attrs: nounwind uwtable
define internal fastcc range(i32 0, 256) i32 @asm_fuseloadm(ptr noundef nonnull %0, i32 noundef range(i32 0, 65536) %1, i32 noundef range(i32 0, 49136) %2, i32 noundef range(i32 0, 524801) %3) unnamed_addr #0 {
  %.not = icmp eq i32 %3, 0
  br i1 %.not, label %27, label %5

5:                                                ; preds = %4
  %6 = getelementptr inbounds nuw i8, ptr %0, i64 144
  %7 = load ptr, ptr %6, align 8, !tbaa !68
  %8 = zext nneg i32 %1 to i64
  %9 = getelementptr inbounds nuw %union.IRIns, ptr %7, i64 %8
  %10 = getelementptr inbounds nuw i8, ptr %9, i64 4
  %11 = load i8, ptr %10, align 4, !tbaa !20
  %12 = and i8 %11, 31
  %13 = zext nneg i8 %12 to i32
  %14 = shl nuw i32 1, %13
  %15 = and i32 %14, 6315993
  %.not9 = icmp eq i32 %15, 0
  br i1 %.not9, label %16, label %27

16:                                               ; preds = %5
  %17 = getelementptr inbounds nuw i8, ptr %9, i64 6
  %18 = load i8, ptr %17, align 2, !tbaa !20
  %19 = zext nneg i8 %18 to i32
  %.not.i = icmp sgt i8 %18, -1
  br i1 %.not.i, label %ra_alloc1.exit, label %20

20:                                               ; preds = %16
  %21 = tail call fastcc i32 @ra_allocref(ptr noundef nonnull %0, i32 noundef %1, i32 noundef %2)
  br label %ra_alloc1.exit

ra_alloc1.exit:                                   ; preds = %16, %20
  %.0.i = phi i32 [ %21, %20 ], [ %19, %16 ]
  %22 = shl nuw i32 1, %.0.i
  %23 = xor i32 %22, -1
  %24 = getelementptr inbounds nuw i8, ptr %0, i64 176
  %25 = load i32, ptr %24, align 8, !tbaa !80
  %26 = and i32 %25, %23
  store i32 %26, ptr %24, align 8, !tbaa !80
  br label %29

27:                                               ; preds = %5, %4
  %28 = tail call fastcc i32 @asm_fuseload(ptr noundef %0, i32 noundef %1, i32 noundef %2)
  br label %29

29:                                               ; preds = %27, %ra_alloc1.exit
  %.0 = phi i32 [ %28, %27 ], [ %.0.i, %ra_alloc1.exit ]
  ret i32 %.0
}